target datalayout = "e-m:e-p270:32:32-p271:32:32-p272:64:64-i64:64-i128:128-f80:128-n8:16:32:64-S128"
target triple = "x86_64-pc-linux-gnu"

%struct.elist = type { ptr, i64 }
%struct.Agobj_s = type { %struct.Agtag_s, ptr }
%struct.Agtag_s = type { i32, i64 }
%struct.Agrec_s = type { ptr, ptr }
%struct.boxf = type { %struct.pointf_s, %struct.pointf_s }
%struct.pointf_s = type { double, double }
%struct.Agnodeinfo_t = type { %struct.Agrec_s, ptr, ptr, %struct.pointf_s, double, double, %struct.boxf, double, double, double, double, double, ptr, ptr, ptr, i8, i8, i8, i8, i32, i32, i32, ptr, double, i8, i8, ptr, ptr, i8, i64, i8, i8, i8, ptr, ptr, %struct.elist, %struct.elist, %struct.elist, %struct.elist, %struct.elist, ptr, i32, ptr, i32, i32, double, %struct.elist, %struct.elist, %struct.elist, %struct.elist, ptr, i32, i32, i32, [1 x double] }
%struct.Agedge_s = type { %struct.Agobj_s, %struct.dtlink_s_, %struct.dtlink_s_, ptr }
%struct.dtlink_s_ = type { ptr, %union.anon }
%union.anon = type { ptr }

; Function Attrs: nounwind uwtable
define internal void @tree_adjust(ptr noundef %0, ptr noundef %1, i32 noundef %2) #0 {
  %4 = alloca ptr, align 8
  %5 = alloca ptr, align 8
  %6 = alloca i32, align 4
  %7 = alloca i32, align 4
  %8 = alloca ptr, align 8
  %9 = alloca ptr, align 8
  store ptr %0, ptr %4, align 8, !tbaa !48
  store ptr %1, ptr %5, align 8, !tbaa !48
  store i32 %2, ptr %6, align 4, !tbaa !8
  call void @llvm.lifetime.start.p0(i64 4, ptr %7) #14
  call void @llvm.lifetime.start.p0(i64 8, ptr %8) #14
  call void @llvm.lifetime.start.p0(i64 8, ptr %9) #14
  %10 = load ptr, ptr %4, align 8, !tbaa !48
  %11 = getelementptr inbounds nuw %struct.Agobj_s, ptr %10, i32 0, i32 1
  %12 = load ptr, ptr %11, align 8, !tbaa !27
  %13 = getelementptr inbounds nuw %struct.Agnodeinfo_t, ptr %12, i32 0, i32 43
  %14 = load i32, ptr %13, align 8, !tbaa !76
  %15 = load i32, ptr %6, align 4, !tbaa !8
  %16 = add nsw i32 %14, %15
  %17 = load ptr, ptr %4, align 8, !tbaa !48
  %18 = getelementptr inbounds nuw %struct.Agobj_s, ptr %17, i32 0, i32 1
  %19 = load ptr, ptr %18, align 8, !tbaa !27
  %20 = getelementptr inbounds nuw %struct.Agnodeinfo_t, ptr %19, i32 0, i32 43
  store i32 %16, ptr %20, align 8, !tbaa !76
  store i32 0, ptr %7, align 4, !tbaa !8
  br label %21

21:                                               ; preds = %56, %3
  %22 = load ptr, ptr %4, align 8, !tbaa !48
  %23 = getelementptr inbounds nuw %struct.Agobj_s, ptr %22, i32 0, i32 1
  %24 = load ptr, ptr %23, align 8, !tbaa !27
  %25 = getelementptr inbounds nuw %struct.Agnodeinfo_t, ptr %24, i32 0, i32 48
  %26 = getelementptr inbounds nuw %struct.elist, ptr %25, i32 0, i32 0
  %27 = load ptr, ptr %26, align 8, !tbaa !79
  %28 = load i32, ptr %7, align 4, !tbaa !8
  %29 = sext i32 %28 to i64
  %30 = getelementptr inbounds ptr, ptr %27, i64 %29
  %31 = load ptr, ptr %30, align 8, !tbaa !19
  store ptr %31, ptr %8, align 8, !tbaa !19
  %32 = icmp ne ptr %31, null
  br i1 %32, label %33, label %59

33:                                               ; preds = %21
  %34 = load ptr, ptr %8, align 8, !tbaa !19
  %35 = getelementptr inbounds nuw %struct.Agobj_s, ptr %34, i32 0, i32 0
  %36 = load i32, ptr %35, align 8
  %37 = and i32 %36, 3
  %38 = icmp eq i32 %37, 3
  br i1 %38, label %39, label %41

39:                                               ; preds = %33
  %40 = load ptr, ptr %8, align 8, !tbaa !19
  br label %44

41:                                               ; preds = %33
  %42 = load ptr, ptr %8, align 8, !tbaa !19
  %43 = getelementptr inbounds %struct.Agedge_s, ptr %42, i64 1
  br label %44

44:                                               ; preds = %41, %39
  %45 = phi ptr [ %40, %39 ], [ %43, %41 ]
  %46 = getelementptr inbounds nuw %struct.Agedge_s, ptr %45, i32 0, i32 3
  %47 = load ptr, ptr %46, align 8, !tbaa !72
  store ptr %47, ptr %9, align 8, !tbaa !48
  %48 = load ptr, ptr %9, align 8, !tbaa !48
  %49 = load ptr, ptr %5, align 8, !tbaa !48
  %50 = icmp ne ptr %48, %49
  br i1 %50, label %51, label %55

51:                                               ; preds = %44
  %52 = load ptr, ptr %9, align 8, !tbaa !48
  %53 = load ptr, ptr %4, align 8, !tbaa !48
  %54 = load i32, ptr %6, align 4, !tbaa !8
  call void @tree_adjust(ptr noundef %52, ptr noundef %53, i32 noundef %54)
  br label %55

55:                                               ; preds = %51, %44
  br label %56

56:                                               ; preds = %55
  %57 = load i32, ptr %7, align 4, !tbaa !8
  %58 = add nsw i32 %57, 1
  store i32 %58, ptr %7, align 4, !tbaa !8
  br label %21, !llvm.loop !149

59:                                               ; preds = %21
  store i32 0, ptr %7, align 4, !tbaa !8
  br label %60

60:                                               ; preds = %95, %59
  %61 = load ptr, ptr %4, align 8, !tbaa !48
  %62 = getelementptr inbounds nuw %struct.Agobj_s, ptr %61, i32 0, i32 1
  %63 = load ptr, ptr %62, align 8, !tbaa !27
  %64 = getelementptr inbounds nuw %struct.Agnodeinfo_t, ptr %63, i32 0, i32 49
  %65 = getelementptr inbounds nuw %struct.elist, ptr %64, i32 0, i32 0
  %66 = load ptr, ptr %65, align 8, !tbaa !82
  %67 = load i32, ptr %7, align 4, !tbaa !8
  %68 = sext i32 %67 to i64
  %69 = getelementptr inbounds ptr, ptr %66, i64 %68
  %70 = load ptr, ptr %69, align 8, !tbaa !19
  store ptr %70, ptr %8, align 8, !tbaa !19
  %71 = icmp ne ptr %70, null
  br i1 %71, label %72, label %98

72:                                               ; preds = %60
  %73 = load ptr, ptr %8, align 8, !tbaa !19
  %74 = getelementptr inbounds nuw %struct.Agobj_s, ptr %73, i32 0, i32 0
  %75 = load i32, ptr %74, align 8
  %76 = and i32 %75, 3
  %77 = icmp eq i32 %76, 2
  br i1 %77, label %78, label %80

78:                                               ; preds = %72
  %79 = load ptr, ptr %8, align 8, !tbaa !19
  br label %83

80:                                               ; preds = %72
  %81 = load ptr, ptr %8, align 8, !tbaa !19
  %82 = getelementptr inbounds %struct.Agedge_s, ptr %81, i64 -1
  br label %83

83:                                               ; preds = %80, %78
  %84 = phi ptr [ %79, %78 ], [ %82, %80 ]
  %85 = getelementptr inbounds nuw %struct.Agedge_s, ptr %84, i32 0, i32 3
  %86 = load ptr, ptr %85, align 8, !tbaa !72
  store ptr %86, ptr %9, align 8, !tbaa !48
  %87 = load ptr, ptr %9, align 8, !tbaa !48
  %88 = load ptr, ptr %5, align 8, !tbaa !48
  %89 = icmp ne ptr %87, %88
  br i1 %89, label %90, label %94

90:                                               ; preds = %83
  %91 = load ptr, ptr %9, align 8, !tbaa !48
  %92 = load ptr, ptr %4, align 8, !tbaa !48
  %93 = load i32, ptr %6, align 4, !tbaa !8
  call void @tree_adjust(ptr noundef %91, ptr noundef %92, i32 noundef %93)
  br label %94

94:                                               ; preds = %90, %83
  br label %95

95:                                               ; preds = %94
  %96 = load i32, ptr %7, align 4, !tbaa !8
  %97 = add nsw i32 %96, 1
  store i32 %97, ptr %7, align 4, !tbaa !8
  br label %60, !llvm.loop !150

98:                                               ; preds = %60
  call void @llvm.lifetime.end.p0(i64 8, ptr %9) #14
  call void @llvm.lifetime.end.p0(i64 8, ptr %8) #14
  call void @llvm.lifetime.end.p0(i64 4, ptr %7) #14
  ret void
}