; Function Attrs: nofree nosync nounwind memory(readwrite, inaccessiblemem: none) uwtable
define internal fastcc void @tree_adjust(ptr noundef %0, ptr noundef readnone captures(address) %1, i32 noundef %2) unnamed_addr #11 {
  %4 = getelementptr inbounds nuw i8, ptr %0, i64 16
  %5 = load ptr, ptr %4, align 8, !tbaa !6
  %6 = getelementptr inbounds nuw i8, ptr %5, i64 360
  %7 = load i32, ptr %6, align 8, !tbaa !60
  %8 = add nsw i32 %7, %2
  store i32 %8, ptr %6, align 8, !tbaa !60
  %9 = getelementptr inbounds nuw i8, ptr %5, i64 408
  %10 = load ptr, ptr %9, align 8, !tbaa !63
  %11 = load ptr, ptr %10, align 8, !tbaa !30
  %.not32 = icmp eq ptr %11, null
  br i1 %.not32, label %.preheader, label %.lr.ph

.preheader:                                       ; preds = %25, %3
  %12 = phi ptr [ %5, %3 ], [ %26, %25 ]
  %13 = getelementptr inbounds nuw i8, ptr %12, i64 424
  %14 = load ptr, ptr %13, align 8, !tbaa !66
  %15 = load ptr, ptr %14, align 8, !tbaa !30
  %.not2834 = icmp eq ptr %15, null
  br i1 %.not2834, label %._crit_edge, label %.lr.ph36

.lr.ph:                                           ; preds = %3, %25
  %16 = phi ptr [ %26, %25 ], [ %5, %3 ]
  %indvars.iv = phi i64 [ %indvars.iv.next, %25 ], [ 0, %3 ]
  %17 = phi ptr [ %30, %25 ], [ %11, %3 ]
  %18 = load i32, ptr %17, align 8
  %19 = and i32 %18, 3
  %20 = icmp eq i32 %19, 3
  %.idx30 = select i1 %20, i64 0, i64 64
  %21 = getelementptr inbounds nuw i8, ptr %17, i64 %.idx30
  %22 = getelementptr inbounds nuw i8, ptr %21, i64 56
  %23 = load ptr, ptr %22, align 8, !tbaa !56
  %.not31 = icmp eq ptr %23, %1
  br i1 %.not31, label %25, label %24

24:                                               ; preds = %.lr.ph
  tail call fastcc void @tree_adjust(ptr noundef %23, ptr noundef %0, i32 noundef %2)
  %.pre = load ptr, ptr %4, align 8, !tbaa !6
  br label %25

25:                                               ; preds = %.lr.ph, %24
  %26 = phi ptr [ %16, %.lr.ph ], [ %.pre, %24 ]
  %indvars.iv.next = add nuw nsw i64 %indvars.iv, 1
  %27 = getelementptr inbounds nuw i8, ptr %26, i64 408
  %28 = load ptr, ptr %27, align 8, !tbaa !63
  %29 = getelementptr inbounds nuw ptr, ptr %28, i64 %indvars.iv.next
  %30 = load ptr, ptr %29, align 8, !tbaa !30
  %.not = icmp eq ptr %30, null
  br i1 %.not, label %.preheader, label %.lr.ph, !llvm.loop !134

.lr.ph36:                                         ; preds = %.preheader, %40
  %31 = phi ptr [ %41, %40 ], [ %12, %.preheader ]
  %indvars.iv38 = phi i64 [ %indvars.iv.next39, %40 ], [ 0, %.preheader ]
  %32 = phi ptr [ %45, %40 ], [ %15, %.preheader ]
  %33 = load i32, ptr %32, align 8
  %34 = and i32 %33, 3
  %35 = icmp eq i32 %34, 2
  %.idx = select i1 %35, i64 0, i64 -64
  %36 = getelementptr inbounds i8, ptr %32, i64 %.idx
  %37 = getelementptr inbounds nuw i8, ptr %36, i64 56
  %38 = load ptr, ptr %37, align 8, !tbaa !56
  %.not29 = icmp eq ptr %38, %1
  br i1 %.not29, label %40, label %39

39:                                               ; preds = %.lr.ph36
  tail call fastcc void @tree_adjust(ptr noundef %38, ptr noundef nonnull %0, i32 noundef %2)
  %.pre41 = load ptr, ptr %4, align 8, !tbaa !6
  br label %40

40:                                               ; preds = %.lr.ph36, %39
  %41 = phi ptr [ %31, %.lr.ph36 ], [ %.pre41, %39 ]
  %indvars.iv.next39 = add nuw nsw i64 %indvars.iv38, 1
  %42 = getelementptr inbounds nuw i8, ptr %41, i64 424
  %43 = load ptr, ptr %42, align 8, !tbaa !66
  %44 = getelementptr inbounds nuw ptr, ptr %43, i64 %indvars.iv.next39
  %45 = load ptr, ptr %44, align 8, !tbaa !30
  %.not28 = icmp eq ptr %45, null
  br i1 %.not28, label %._crit_edge, label %.lr.ph36, !llvm.loop !135

._crit_edge:                                      ; preds = %40, %.preheader
  ret void
}